; Function Attrs: mustprogress nofree norecurse nosync nounwind willreturn memory(readwrite, inaccessiblemem: none) uwtable
define dso_local noundef zeroext i1 @_ZNK4llvm14RISCVInstrInfo22reverseBranchConditionERNS_15SmallVectorImplINS_14MachineOperandEEE(ptr nocapture nonnull readnone align 8 %0, ptr nocapture noundef nonnull readonly align 8 dereferenceable(16) %1) unnamed_addr #12 align 2 {
switch.lookup:
  %2 = load ptr, ptr %1, align 8
  %3 = getelementptr inbounds nuw i8, ptr %2, i64 16
  %4 = load i64, ptr %3, align 8
  %sext = shl i64 %4, 32
  %5 = ashr exact i64 %sext, 32
  %switch.gep = getelementptr inbounds [6 x i64], ptr @switch.table._ZNK4llvm14RISCVInstrInfo22commuteInstructionImplERNS_12MachineInstrEbjj, i64 0, i64 %5
  %switch.load = load i64, ptr %switch.gep, align 8
  store i64 %switch.load, ptr %3, align 8
  ret i1 false
}